; Function Attrs: nounwind uwtable
define dso_local noundef i32 @_ZThn56_N4node4quic7Session27ExtractSessionTicketAppDataERKNS0_13SessionTicket7AppDataENS3_6Source4FlagE(ptr nocapture noundef readonly %this, ptr noundef nonnull align 8 dereferenceable(16) %app_data, i32 noundef %flag) unnamed_addr #13 align 2 {
entry:
  %application_.i = getelementptr inbounds i8, ptr %this, i64 2080
  %0 = load ptr, ptr %application_.i, align 8
  %vtable.i = load ptr, ptr %0, align 8
  %vfn.i = getelementptr inbounds i8, ptr %vtable.i, i64 136
  %1 = load ptr, ptr %vfn.i, align 8
  %call2.i = tail call noundef i32 %1(ptr noundef nonnull align 8 dereferenceable(16) %0, ptr noundef nonnull align 8 dereferenceable(16) %app_data, i32 noundef %flag) #28
  ret i32 %call2.i
}